; Function Attrs: mustprogress uwtable
define hidden void @_ZN5zxing9Binarizer11getBlackRowEiNS_3RefINS_8BitArrayEEERNS_12ErrorHandlerE(ptr dead_on_unwind noalias writable writeonly sret(%"class.zxing::Ref.9") align 8 captures(none) %0, ptr noundef nonnull align 8 dereferenceable(72) %1, i32 noundef %2, ptr noundef readonly captures(none) %3, ptr noundef nonnull align 8 dereferenceable(48) %4) unnamed_addr #0 align 2 personality ptr @__gxx_personality_v0 {
  %6 = alloca %"class.zxing::Ref.0", align 8
  %7 = alloca %"class.zxing::Ref.9", align 8
  %8 = alloca %"class.zxing::Ref.9", align 8
  %9 = getelementptr inbounds nuw i8, ptr %1, i64 48
  %10 = load ptr, ptr %9, align 8
  %.not = icmp eq ptr %10, null
  br i1 %.not, label %11, label %45

11:                                               ; preds = %5
  %12 = load ptr, ptr %1, align 8
  %13 = getelementptr inbounds nuw i8, ptr %12, i64 16
  %14 = load ptr, ptr %13, align 8
  call void %14(ptr dead_on_unwind nonnull writable sret(%"class.zxing::Ref.0") align 8 %6, ptr noundef nonnull align 8 dereferenceable(72) %1, ptr noundef nonnull align 8 dereferenceable(48) %4)
  %15 = load ptr, ptr %6, align 8
  %.not.i.i = icmp eq ptr %15, null
  br i1 %.not.i.i, label %20, label %16

16:                                               ; preds = %11
  %17 = getelementptr inbounds nuw i8, ptr %15, i64 8
  %18 = load i32, ptr %17, align 8
  %19 = add i32 %18, 1
  store i32 %19, ptr %17, align 8
  br label %20

20:                                               ; preds = %16, %11
  %21 = load ptr, ptr %9, align 8
  %.not5.i.i = icmp eq ptr %21, null
  br i1 %.not5.i.i, label %_ZN5zxing3RefINS_9BitMatrixEEaSERKS2_.exit, label %22

22:                                               ; preds = %20
  %23 = getelementptr inbounds nuw i8, ptr %21, i64 8
  %24 = load i32, ptr %23, align 8
  %25 = add i32 %24, -1
  store i32 %25, ptr %23, align 8
  %26 = icmp eq i32 %25, 0
  br i1 %26, label %27, label %_ZN5zxing3RefINS_9BitMatrixEEaSERKS2_.exit

27:                                               ; preds = %22
  store i32 -559026175, ptr %23, align 8
  %28 = load ptr, ptr %21, align 8
  %29 = getelementptr inbounds nuw i8, ptr %28, i64 8
  %30 = load ptr, ptr %29, align 8
  call void %30(ptr noundef nonnull align 8 dereferenceable(12) %21) #10
  %.pre = load ptr, ptr %6, align 8
  br label %_ZN5zxing3RefINS_9BitMatrixEEaSERKS2_.exit

_ZN5zxing3RefINS_9BitMatrixEEaSERKS2_.exit:       ; preds = %20, %22, %27
  %31 = phi ptr [ %15, %20 ], [ %15, %22 ], [ %.pre, %27 ]
  store ptr %15, ptr %9, align 8
  %.not.i = icmp eq ptr %31, null
  br i1 %.not.i, label %_ZN5zxing3RefINS_9BitMatrixEED2Ev.exit, label %32

32:                                               ; preds = %_ZN5zxing3RefINS_9BitMatrixEEaSERKS2_.exit
  %33 = getelementptr inbounds nuw i8, ptr %31, i64 8
  %34 = load i32, ptr %33, align 8
  %35 = add i32 %34, -1
  store i32 %35, ptr %33, align 8
  %36 = icmp eq i32 %35, 0
  br i1 %36, label %37, label %_ZN5zxing3RefINS_9BitMatrixEED2Ev.exit

37:                                               ; preds = %32
  store i32 -559026175, ptr %33, align 8
  %38 = load ptr, ptr %31, align 8
  %39 = getelementptr inbounds nuw i8, ptr %38, i64 8
  %40 = load ptr, ptr %39, align 8
  call void %40(ptr noundef nonnull align 8 dereferenceable(12) %31) #10
  br label %_ZN5zxing3RefINS_9BitMatrixEED2Ev.exit

_ZN5zxing3RefINS_9BitMatrixEED2Ev.exit:           ; preds = %_ZN5zxing3RefINS_9BitMatrixEEaSERKS2_.exit, %32, %37
  %41 = load ptr, ptr %4, align 8
  %42 = getelementptr inbounds nuw i8, ptr %41, i64 16
  %43 = load ptr, ptr %42, align 8
  %44 = call noundef i32 %43(ptr noundef nonnull align 8 dereferenceable(48) %4)
  %.not5 = icmp eq i32 %44, 0
  br i1 %.not5, label %_ZN5zxing3RefINS_9BitMatrixEED2Ev.exit._crit_edge, label %_ZN5zxing3RefINS_8BitArrayEEC2ERKS2_.exit14

_ZN5zxing3RefINS_9BitMatrixEED2Ev.exit._crit_edge: ; preds = %_ZN5zxing3RefINS_9BitMatrixEED2Ev.exit
  %.pre17 = load ptr, ptr %9, align 8
  br label %45

45:                                               ; preds = %_ZN5zxing3RefINS_9BitMatrixEED2Ev.exit._crit_edge, %5
  %46 = phi ptr [ %.pre17, %_ZN5zxing3RefINS_9BitMatrixEED2Ev.exit._crit_edge ], [ %10, %5 ]
  %47 = load ptr, ptr %3, align 8
  %.not.i.i6 = icmp eq ptr %47, null
  br i1 %.not.i.i6, label %_ZN5zxing3RefINS_8BitArrayEEC2ERKS2_.exit, label %48

48:                                               ; preds = %45
  %49 = getelementptr inbounds nuw i8, ptr %47, i64 8
  %50 = load i32, ptr %49, align 8
  %51 = add i32 %50, 1
  store i32 %51, ptr %49, align 8
  br label %_ZN5zxing3RefINS_8BitArrayEEC2ERKS2_.exit

_ZN5zxing3RefINS_8BitArrayEEC2ERKS2_.exit:        ; preds = %48, %45
  store ptr %47, ptr %8, align 8
  invoke void @_ZN5zxing9BitMatrix6getRowEiNS_3RefINS_8BitArrayEEE(ptr dead_on_unwind nonnull writable sret(%"class.zxing::Ref.9") align 8 %7, ptr noundef nonnull align 8 dereferenceable(346) %46, i32 noundef %2, ptr noundef nonnull %8)
          to label %52 unwind label %78

52:                                               ; preds = %_ZN5zxing3RefINS_8BitArrayEEC2ERKS2_.exit
  %53 = load ptr, ptr %7, align 8
  %.not.i8 = icmp eq ptr %53, null
  br i1 %.not.i8, label %_ZN5zxing3RefINS_8BitArrayEED2Ev.exit, label %54

54:                                               ; preds = %52
  %55 = getelementptr inbounds nuw i8, ptr %53, i64 8
  %56 = load i32, ptr %55, align 8
  %57 = add i32 %56, -1
  store i32 %57, ptr %55, align 8
  %58 = icmp eq i32 %57, 0
  br i1 %58, label %59, label %_ZN5zxing3RefINS_8BitArrayEED2Ev.exit

59:                                               ; preds = %54
  store i32 -559026175, ptr %55, align 8
  %60 = load ptr, ptr %53, align 8
  %61 = getelementptr inbounds nuw i8, ptr %60, i64 8
  %62 = load ptr, ptr %61, align 8
  call void %62(ptr noundef nonnull align 8 dereferenceable(12) %53) #10
  br label %_ZN5zxing3RefINS_8BitArrayEED2Ev.exit

_ZN5zxing3RefINS_8BitArrayEED2Ev.exit:            ; preds = %52, %54, %59
  %63 = load ptr, ptr %8, align 8
  %.not.i9 = icmp eq ptr %63, null
  br i1 %.not.i9, label %_ZN5zxing3RefINS_8BitArrayEED2Ev.exit10, label %64

64:                                               ; preds = %_ZN5zxing3RefINS_8BitArrayEED2Ev.exit
  %65 = getelementptr inbounds nuw i8, ptr %63, i64 8
  %66 = load i32, ptr %65, align 8
  %67 = add i32 %66, -1
  store i32 %67, ptr %65, align 8
  %68 = icmp eq i32 %67, 0
  br i1 %68, label %69, label %_ZN5zxing3RefINS_8BitArrayEED2Ev.exit10

69:                                               ; preds = %64
  store i32 -559026175, ptr %65, align 8
  %70 = load ptr, ptr %63, align 8
  %71 = getelementptr inbounds nuw i8, ptr %70, i64 8
  %72 = load ptr, ptr %71, align 8
  call void %72(ptr noundef nonnull align 8 dereferenceable(12) %63) #10
  br label %_ZN5zxing3RefINS_8BitArrayEED2Ev.exit10

_ZN5zxing3RefINS_8BitArrayEED2Ev.exit10:          ; preds = %_ZN5zxing3RefINS_8BitArrayEED2Ev.exit, %64, %69
  %73 = load ptr, ptr %3, align 8
  %.not.i.i11 = icmp eq ptr %73, null
  br i1 %.not.i.i11, label %_ZN5zxing3RefINS_8BitArrayEEC2ERKS2_.exit14, label %74

74:                                               ; preds = %_ZN5zxing3RefINS_8BitArrayEED2Ev.exit10
  %75 = getelementptr inbounds nuw i8, ptr %73, i64 8
  %76 = load i32, ptr %75, align 8
  %77 = add i32 %76, 1
  store i32 %77, ptr %75, align 8
  br label %_ZN5zxing3RefINS_8BitArrayEEC2ERKS2_.exit14

78:                                               ; preds = %_ZN5zxing3RefINS_8BitArrayEEC2ERKS2_.exit
  %79 = landingpad { ptr, i32 }
          cleanup
  %80 = load ptr, ptr %8, align 8
  %.not.i15 = icmp eq ptr %80, null
  br i1 %.not.i15, label %_ZN5zxing3RefINS_8BitArrayEED2Ev.exit16, label %81

81:                                               ; preds = %78
  %82 = getelementptr inbounds nuw i8, ptr %80, i64 8
  %83 = load i32, ptr %82, align 8
  %84 = add i32 %83, -1
  store i32 %84, ptr %82, align 8
  %85 = icmp eq i32 %84, 0
  br i1 %85, label %86, label %_ZN5zxing3RefINS_8BitArrayEED2Ev.exit16

86:                                               ; preds = %81
  store i32 -559026175, ptr %82, align 8
  %87 = load ptr, ptr %80, align 8
  %88 = getelementptr inbounds nuw i8, ptr %87, i64 8
  %89 = load ptr, ptr %88, align 8
  call void %89(ptr noundef nonnull align 8 dereferenceable(12) %80) #10
  br label %_ZN5zxing3RefINS_8BitArrayEED2Ev.exit16

_ZN5zxing3RefINS_8BitArrayEED2Ev.exit16:          ; preds = %78, %81, %86
  resume { ptr, i32 } %79

_ZN5zxing3RefINS_8BitArrayEEC2ERKS2_.exit14:      ; preds = %_ZN5zxing3RefINS_8BitArrayEED2Ev.exit10, %74, %_ZN5zxing3RefINS_9BitMatrixEED2Ev.exit
  %storemerge = phi ptr [ null, %_ZN5zxing3RefINS_9BitMatrixEED2Ev.exit ], [ %73, %74 ], [ null, %_ZN5zxing3RefINS_8BitArrayEED2Ev.exit10 ]
  store ptr %storemerge, ptr %0, align 8
  ret void
}